; Function Attrs: nounwind sspstrong uwtable
define internal void @tpm_emulator_inst_init(ptr noundef %obj) #0 {
entry:
  %_now.i.i = alloca %struct.timeval, align 8
  %call.i = tail call ptr @object_dynamic_cast_assert(ptr noundef %obj, ptr noundef nonnull @.str, ptr noundef nonnull @.str.2, i32 noundef 50, ptr noundef nonnull @__func__.TPM_EMULATOR) #12
  call void @llvm.lifetime.start.p0(i64 16, ptr nonnull %_now.i.i)
  %0 = load i32, ptr @trace_events_enabled_count, align 4
  %tobool.i.i = icmp ne i32 %0, 0
  %1 = load i16, ptr @_TRACE_TPM_EMULATOR_INST_INIT_DSTATE, align 2
  %tobool4.i.i = icmp ne i16 %1, 0
  %or.cond.i.i = select i1 %tobool.i.i, i1 %tobool4.i.i, i1 false
  br i1 %or.cond.i.i, label %land.lhs.true5.i.i, label %trace_tpm_emulator_inst_init.exit

land.lhs.true5.i.i:                               ; preds = %entry
  %2 = load i32, ptr @qemu_loglevel, align 4
  %and.i.i.i = and i32 %2, 32768
  %cmp.i.not.i.i = icmp eq i32 %and.i.i.i, 0
  br i1 %cmp.i.not.i.i, label %trace_tpm_emulator_inst_init.exit, label %if.then.i.i

if.then.i.i:                                      ; preds = %land.lhs.true5.i.i
  %3 = load i8, ptr @message_with_timestamp, align 1
  %tobool7.i.i = trunc i8 %3 to i1
  br i1 %tobool7.i.i, label %if.then8.i.i, label %if.else.i.i

if.then8.i.i:                                     ; preds = %if.then.i.i
  %call9.i.i = call i32 @gettimeofday(ptr noundef nonnull %_now.i.i, ptr noundef null) #12
  %call10.i.i = tail call i32 @qemu_get_thread_id() #12
  %4 = load i64, ptr %_now.i.i, align 8
  %tv_usec.i.i = getelementptr inbounds nuw i8, ptr %_now.i.i, i64 8
  %5 = load i64, ptr %tv_usec.i.i, align 8
  tail call void (ptr, ...) @qemu_log(ptr noundef nonnull @.str.3, i32 noundef %call10.i.i, i64 noundef %4, i64 noundef %5) #12
  br label %trace_tpm_emulator_inst_init.exit

if.else.i.i:                                      ; preds = %if.then.i.i
  tail call void (ptr, ...) @qemu_log(ptr noundef nonnull @.str.4) #12
  br label %trace_tpm_emulator_inst_init.exit

trace_tpm_emulator_inst_init.exit:                ; preds = %entry, %land.lhs.true5.i.i, %if.then8.i.i, %if.else.i.i
  call void @llvm.lifetime.end.p0(i64 16, ptr nonnull %_now.i.i)
  %call1 = tail call noalias dereferenceable_or_null(8) ptr @g_malloc0_n(i64 noundef 1, i64 noundef 8) #13
  %options = getelementptr inbounds nuw i8, ptr %call.i, i64 88
  store ptr %call1, ptr %options, align 8
  %cur_locty_number = getelementptr inbounds nuw i8, ptr %call.i, i64 176
  store i8 -1, ptr %cur_locty_number, align 8
  %mutex = getelementptr inbounds nuw i8, ptr %call.i, i64 192
  tail call void @qemu_mutex_init(ptr noundef nonnull %mutex) #12
  %call2 = tail call ptr @qemu_add_vm_change_state_handler(ptr noundef nonnull @tpm_emulator_vm_state_change, ptr noundef %call.i) #12
  %vmstate = getelementptr inbounds nuw i8, ptr %call.i, i64 328
  store ptr %call2, ptr %vmstate, align 8
  %call.i6 = tail call i32 @vmstate_register_with_alias_id(ptr noundef null, i32 noundef -1, ptr noundef nonnull @vmstate_tpm_emulator, ptr noundef %obj, i32 noundef -1, i32 noundef 0, ptr noundef null) #12
  ret void
}